target datalayout = "e-m:e-p270:32:32-p271:32:32-p272:64:64-i64:64-i128:128-f80:128-n8:16:32:64-S128"
target triple = "x86_64-pc-linux-gnu"

@mainctx = internal global ptr null, align 8
@.str.28 = private unnamed_addr constant [34 x i8] c"../openssl/test/evp_extra_test2.c\00", align 1
@.str.57 = private unnamed_addr constant [2 x i8] c"1\00", align 1
@.str.69 = private unnamed_addr constant [2 x i8] c"0\00", align 1
@.str.72 = private unnamed_addr constant [54 x i8] c"key = EVP_PKEY_Q_keygen(mainctx, NULL, \22EC\22, \22P-256\22)\00", align 1
@.str.73 = private unnamed_addr constant [3 x i8] c"EC\00", align 1
@.str.74 = private unnamed_addr constant [6 x i8] c"P-256\00", align 1
@test_ec_d2i_i2d_pubkey.filename = internal global ptr @.str.90, align 8
@.str.91 = private unnamed_addr constant [27 x i8] c"fp = fopen(filename, \22wb\22)\00", align 1
@.str.92 = private unnamed_addr constant [3 x i8] c"wb\00", align 1
@.str.93 = private unnamed_addr constant [23 x i8] c"i2d_PUBKEY_fp(fp, key)\00", align 1
@.str.94 = private unnamed_addr constant [11 x i8] c"fclose(fp)\00", align 1
@.str.95 = private unnamed_addr constant [27 x i8] c"fp = fopen(filename, \22rb\22)\00", align 1
@.str.96 = private unnamed_addr constant [3 x i8] c"rb\00", align 1
@.str.97 = private unnamed_addr constant [51 x i8] c"outkey = d2i_PUBKEY_ex_fp(fp, NULL, mainctx, NULL)\00", align 1
@.str.98 = private unnamed_addr constant [25 x i8] c"EVP_PKEY_eq(key, outkey)\00", align 1

; Function Attrs: nounwind uwtable
define internal i32 @test_ec_d2i_i2d_pubkey() #0 {
  %1 = alloca i32, align 4
  %2 = alloca ptr, align 8
  %3 = alloca ptr, align 8
  %4 = alloca ptr, align 8
  call void @llvm.lifetime.start.p0(i64 4, ptr %1) #7
  store i32 0, ptr %1, align 4, !tbaa !11
  call void @llvm.lifetime.start.p0(i64 8, ptr %2) #7
  store ptr null, ptr %2, align 8, !tbaa !33
  call void @llvm.lifetime.start.p0(i64 8, ptr %3) #7
  store ptr null, ptr %3, align 8, !tbaa !13
  call void @llvm.lifetime.start.p0(i64 8, ptr %4) #7
  store ptr null, ptr %4, align 8, !tbaa !13
  %5 = load ptr, ptr @test_ec_d2i_i2d_pubkey.filename, align 8, !tbaa !21
  %6 = call noalias ptr @fopen(ptr noundef %5, ptr noundef @.str.92)
  store ptr %6, ptr %2, align 8, !tbaa !33
  %7 = call i32 @test_ptr(ptr noundef @.str.28, i32 noundef 516, ptr noundef @.str.91, ptr noundef %6)
  %8 = icmp ne i32 %7, 0
  br i1 %8, label %9, label %27

9:                                                ; preds = %0
  %10 = load ptr, ptr @mainctx, align 8, !tbaa !4
  %11 = call ptr (ptr, ptr, ptr, ...) @EVP_PKEY_Q_keygen(ptr noundef %10, ptr noundef null, ptr noundef @.str.73, ptr noundef @.str.74)
  store ptr %11, ptr %3, align 8, !tbaa !13
  %12 = call i32 @test_ptr(ptr noundef @.str.28, i32 noundef 517, ptr noundef @.str.72, ptr noundef %11)
  %13 = icmp ne i32 %12, 0
  br i1 %13, label %14, label %27

14:                                               ; preds = %9
  %15 = load ptr, ptr %2, align 8, !tbaa !33
  %16 = load ptr, ptr %3, align 8, !tbaa !13
  %17 = call i32 @i2d_PUBKEY_fp(ptr noundef %15, ptr noundef %16)
  %18 = icmp ne i32 %17, 0
  %19 = zext i1 %18 to i32
  %20 = call i32 @test_true(ptr noundef @.str.28, i32 noundef 518, ptr noundef @.str.93, i32 noundef %19)
  %21 = icmp ne i32 %20, 0
  br i1 %21, label %22, label %27

22:                                               ; preds = %14
  %23 = load ptr, ptr %2, align 8, !tbaa !33
  %24 = call i32 @fclose(ptr noundef %23)
  %25 = call i32 @test_int_eq(ptr noundef @.str.28, i32 noundef 519, ptr noundef @.str.94, ptr noundef @.str.69, i32 noundef %24, i32 noundef 0)
  %26 = icmp ne i32 %25, 0
  br i1 %26, label %28, label %27

27:                                               ; preds = %22, %14, %9, %0
  br label %47

28:                                               ; preds = %22
  store ptr null, ptr %2, align 8, !tbaa !33
  %29 = load ptr, ptr @test_ec_d2i_i2d_pubkey.filename, align 8, !tbaa !21
  %30 = call noalias ptr @fopen(ptr noundef %29, ptr noundef @.str.96)
  store ptr %30, ptr %2, align 8, !tbaa !33
  %31 = call i32 @test_ptr(ptr noundef @.str.28, i32 noundef 523, ptr noundef @.str.95, ptr noundef %30)
  %32 = icmp ne i32 %31, 0
  br i1 %32, label %33, label %45

33:                                               ; preds = %28
  %34 = load ptr, ptr %2, align 8, !tbaa !33
  %35 = load ptr, ptr @mainctx, align 8, !tbaa !4
  %36 = call ptr @d2i_PUBKEY_ex_fp(ptr noundef %34, ptr noundef null, ptr noundef %35, ptr noundef null)
  store ptr %36, ptr %4, align 8, !tbaa !13
  %37 = call i32 @test_ptr(ptr noundef @.str.28, i32 noundef 524, ptr noundef @.str.97, ptr noundef %36)
  %38 = icmp ne i32 %37, 0
  br i1 %38, label %39, label %45

39:                                               ; preds = %33
  %40 = load ptr, ptr %3, align 8, !tbaa !13
  %41 = load ptr, ptr %4, align 8, !tbaa !13
  %42 = call i32 @EVP_PKEY_eq(ptr noundef %40, ptr noundef %41)
  %43 = call i32 @test_int_eq(ptr noundef @.str.28, i32 noundef 525, ptr noundef @.str.98, ptr noundef @.str.57, i32 noundef %42, i32 noundef 1)
  %44 = icmp ne i32 %43, 0
  br i1 %44, label %46, label %45

45:                                               ; preds = %39, %33, %28
  br label %47

46:                                               ; preds = %39
  store i32 1, ptr %1, align 4, !tbaa !11
  br label %47

47:                                               ; preds = %46, %45, %27
  %48 = load ptr, ptr %4, align 8, !tbaa !13
  call void @EVP_PKEY_free(ptr noundef %48)
  %49 = load ptr, ptr %3, align 8, !tbaa !13
  call void @EVP_PKEY_free(ptr noundef %49)
  %50 = load ptr, ptr %2, align 8, !tbaa !33
  %51 = call i32 @fclose(ptr noundef %50)
  %52 = load i32, ptr %1, align 4, !tbaa !11
  call void @llvm.lifetime.end.p0(i64 8, ptr %4) #7
  call void @llvm.lifetime.end.p0(i64 8, ptr %3) #7
  call void @llvm.lifetime.end.p0(i64 8, ptr %2) #7
  call void @llvm.lifetime.end.p0(i64 4, ptr %1) #7
  ret i32 %52
}