; Function Attrs: nounwind uwtable
define internal range(i32 0, 2) i32 @test_ec_d2i_i2d_pubkey() #0 {
  %1 = tail call noalias ptr @fopen(ptr noundef nonnull @.str.90, ptr noundef nonnull @.str.92)
  %2 = tail call i32 @test_ptr(ptr noundef nonnull @.str.28, i32 noundef 516, ptr noundef nonnull @.str.91, ptr noundef %1) #7
  %.not = icmp eq i32 %2, 0
  br i1 %.not, label %25, label %3

3:                                                ; preds = %0
  %4 = load ptr, ptr @mainctx, align 8, !tbaa !4
  %5 = tail call ptr (ptr, ptr, ptr, ...) @EVP_PKEY_Q_keygen(ptr noundef %4, ptr noundef null, ptr noundef nonnull @.str.73, ptr noundef nonnull @.str.74) #7
  %6 = tail call i32 @test_ptr(ptr noundef nonnull @.str.28, i32 noundef 517, ptr noundef nonnull @.str.72, ptr noundef %5) #7
  %.not12 = icmp eq i32 %6, 0
  br i1 %.not12, label %25, label %7

7:                                                ; preds = %3
  %8 = tail call i32 @i2d_PUBKEY_fp(ptr noundef %1, ptr noundef %5) #7
  %9 = icmp ne i32 %8, 0
  %10 = zext i1 %9 to i32
  %11 = tail call i32 @test_true(ptr noundef nonnull @.str.28, i32 noundef 518, ptr noundef nonnull @.str.93, i32 noundef %10) #7
  %.not13 = icmp eq i32 %11, 0
  br i1 %.not13, label %25, label %12

12:                                               ; preds = %7
  %13 = tail call i32 @fclose(ptr noundef %1)
  %14 = tail call i32 @test_int_eq(ptr noundef nonnull @.str.28, i32 noundef 519, ptr noundef nonnull @.str.94, ptr noundef nonnull @.str.69, i32 noundef %13, i32 noundef 0) #7
  %.not14 = icmp eq i32 %14, 0
  br i1 %.not14, label %25, label %15

15:                                               ; preds = %12
  %16 = tail call noalias ptr @fopen(ptr noundef nonnull @.str.90, ptr noundef nonnull @.str.96)
  %17 = tail call i32 @test_ptr(ptr noundef nonnull @.str.28, i32 noundef 523, ptr noundef nonnull @.str.95, ptr noundef %16) #7
  %.not15 = icmp eq i32 %17, 0
  br i1 %.not15, label %25, label %18

18:                                               ; preds = %15
  %19 = load ptr, ptr @mainctx, align 8, !tbaa !4
  %20 = tail call ptr @d2i_PUBKEY_ex_fp(ptr noundef %16, ptr noundef null, ptr noundef %19, ptr noundef null) #7
  %21 = tail call i32 @test_ptr(ptr noundef nonnull @.str.28, i32 noundef 524, ptr noundef nonnull @.str.97, ptr noundef %20) #7
  %.not16 = icmp eq i32 %21, 0
  br i1 %.not16, label %25, label %22

22:                                               ; preds = %18
  %23 = tail call i32 @EVP_PKEY_eq(ptr noundef %5, ptr noundef %20) #7
  %24 = tail call i32 @test_int_eq(ptr noundef nonnull @.str.28, i32 noundef 525, ptr noundef nonnull @.str.98, ptr noundef nonnull @.str.57, i32 noundef %23, i32 noundef 1) #7
  %.not17 = icmp ne i32 %24, 0
  %spec.select = zext i1 %.not17 to i32
  br label %25

25:                                               ; preds = %22, %15, %18, %0, %3, %7, %12
  %.011 = phi i32 [ 0, %18 ], [ 0, %15 ], [ 0, %12 ], [ 0, %7 ], [ 0, %3 ], [ 0, %0 ], [ %spec.select, %22 ]
  %.010 = phi ptr [ %16, %18 ], [ %16, %15 ], [ %1, %12 ], [ %1, %7 ], [ %1, %3 ], [ %1, %0 ], [ %16, %22 ]
  %.09 = phi ptr [ %5, %18 ], [ %5, %15 ], [ %5, %12 ], [ %5, %7 ], [ %5, %3 ], [ null, %0 ], [ %5, %22 ]
  %.0 = phi ptr [ %20, %18 ], [ null, %15 ], [ null, %12 ], [ null, %7 ], [ null, %3 ], [ null, %0 ], [ %20, %22 ]
  tail call void @EVP_PKEY_free(ptr noundef %.0) #7
  tail call void @EVP_PKEY_free(ptr noundef %.09) #7
  %26 = tail call i32 @fclose(ptr noundef %.010)
  ret i32 %.011
}